Certificate:
    Data:
        Version: 3 (0x2)
        Serial Number:
            7b:b2:ca:3e:8e:07:6d:b6:51:db:23:eb:fa:61:92:ba
        Signature Algorithm: sha256WithRSAEncryption
        Issuer: CN=ovpnca
        Validity
            Not Before: May 18 14:37:43 2022 GMT
            Not After : Aug 20 14:37:43 2024 GMT
        Subject: CN=hatterclient_1194
        Subject Public Key Info:
            Public Key Algorithm: rsaEncryption
                RSA Public-Key: (4096 bit)
                Modulus:
                    00:bc:b7:d9:12:51:1f:72:c8:91:0b:4b:17:c2:cf:
                    30:cc:27:06:0a:d1:b0:80:16:fc:a6:89:47:9f:cc:
                    05:68:a2:24:b2:62:ab:a7:9d:4b:69:9e:c3:d8:de:
                    42:2e:2d:5e:0c:9d:4d:83:a8:9e:59:8f:c9:b1:19:
                    89:99:16:b4:40:b0:bc:ba:35:e6:a8:0a:ba:45:da:
                    15:b1:28:74:aa:9d:2d:23:37:0a:0d:60:50:1e:ed:
                    8a:1a:3b:2a:fd:bf:d3:6f:bf:e1:64:1c:e2:51:6b:
                    3f:d1:33:36:81:9e:ce:00:cf:fd:ce:96:50:97:ef:
                    23:c6:42:e5:67:27:81:fc:d2:b8:4f:2f:2b:5c:cb:
                    35:e0:b5:03:2c:21:c1:59:89:d9:34:a3:35:cc:52:
                    6b:bb:76:ae:84:8f:23:30:ee:4a:8c:86:37:07:e2:
                    a9:54:39:54:d0:8a:0b:43:c9:5c:f4:c8:8b:06:89:
                    cb:71:15:9a:36:84:e3:84:a7:62:db:1a:b2:e8:2b:
                    1e:09:cd:f2:30:fe:fb:be:1b:92:a7:af:24:af:c8:
                    77:84:bb:05:67:55:46:ae:06:4e:d9:67:5f:31:91:
                    28:b4:bd:d1:37:00:5a:d8:c9:50:6f:6e:57:69:83:
                    22:0f:4e:4f:18:39:17:68:df:53:6c:e0:d8:d2:fe:
                    f4:89:11:36:e0:a5:27:87:f8:13:57:3b:81:9c:b7:
                    04:e2:0a:5d:bd:a2:5b:7c:f4:ba:6a:f3:26:da:b0:
                    c2:02:dc:76:0b:0d:a8:34:6a:6e:5b:a9:2f:a9:a9:
                    91:2a:3d:0d:1d:a8:ea:3e:44:55:1e:b2:e1:7b:f2:
                    f0:61:ed:14:5d:b8:fa:9f:06:e8:35:67:dc:ab:15:
                    ee:34:c7:08:6e:10:e0:51:a1:33:76:5d:64:c2:40:
                    0a:4a:15:12:4a:02:66:45:c7:d1:78:6f:e5:76:61:
                    78:ec:db:74:0b:85:d5:f0:99:15:11:ec:12:67:8e:
                    16:15:a0:1f:a1:25:50:16:d4:74:ce:f5:4c:cc:08:
                    50:84:59:6f:9f:c1:4f:55:9d:11:67:a0:bf:a8:a1:
                    27:bb:c5:42:c4:60:85:87:49:78:c9:76:5a:1a:a7:
                    29:21:88:6c:26:00:92:8f:c4:ea:2f:92:8d:b7:c7:
                    cb:da:f3:df:c1:f4:bd:f5:1b:9f:1e:86:f2:7d:74:
                    5b:20:2a:b5:22:84:c5:70:91:77:e6:b0:10:5c:ea:
                    e0:d8:ce:cf:1d:c9:8d:96:53:5a:48:65:3d:11:72:
                    3c:24:d8:b7:8c:a9:ec:b3:62:29:b4:c4:ba:fd:ec:
                    1a:32:d4:f6:dc:18:b2:10:59:a1:1e:ba:1e:d9:54:
                    2a:b8:5d
                Exponent: 65537 (0x10001)
        X509v3 extensions:
            X509v3 Basic Constraints: 
                CA:FALSE
            X509v3 Subject Key Identifier: 
                E7:F7:B8:0E:1E:89:42:55:A4:02:66:4B:F5:F7:89:E1:53:8E:2F:B2
            X509v3 Authority Key Identifier: 
                keyid:B2:13:BB:B6:D4:BC:12:7C:EF:AB:FB:6B:F9:68:C5:16:9A:8D:11:78
                DirName:/CN=ovpnca
                serial:77:C4:86:F4:C4:6E:F2:48:7A:FF:79:D4:D3:ED:10:95:D2:11:67:DC

            X509v3 Extended Key Usage: 
                TLS Web Client Authentication
            X509v3 Key Usage: 
                Digital Signature
    Signature Algorithm: sha256WithRSAEncryption
         08:2c:88:d1:01:cd:fb:91:19:d4:36:0f:cd:c6:32:c9:64:02:
         1a:d8:24:9d:8e:32:61:f5:30:55:d2:68:19:4d:c7:5f:13:fc:
         6c:e9:4d:39:97:80:bf:eb:61:82:48:03:35:5f:1c:27:28:9e:
         3d:ed:e5:4e:ca:93:e1:d3:0d:ea:b0:4b:27:83:52:db:83:63:
         7c:e1:11:6c:47:ac:f1:eb:2a:3e:6d:f6:93:fe:b6:31:91:be:
         de:25:07:c5:7e:e2:23:8a:53:95:1c:ba:ed:14:39:f7:a8:d6:
         5d:85:c3:67:95:22:15:b9:14:0c:02:3f:27:8e:ed:4f:00:e7:
         60:55:f2:5e:95:e3:88:a0:8b:f2:41:17:34:2f:cd:82:59:d9:
         cd:7f:0c:fd:69:79:44:7b:31:b8:13:c0:ff:a9:65:63:12:28:
         24:96:cf:f7:6d:a9:5a:13:64:74:39:82:dd:ff:77:71:9d:4b:
         4e:b6:bd:fd:7e:54:3d:cd:29:da:6e:c4:3c:13:64:0f:73:1d:
         40:23:09:75:3c:27:22:13:83:70:2a:58:fa:72:f2:b8:08:1a:
         95:79:e3:da:7b:13:f1:08:30:00:37:63:9d:f9:42:4e:f6:88:
         8b:d7:a0:58:6c:cb:36:4a:28:e9:22:4f:d8:15:47:76:0c:37:
         90:ec:ee:7b:62:9c:50:32:0b:05:31:3b:f9:94:6f:f9:74:bb:
         cb:2f:11:b9:ea:86:b3:2c:b2:14:4c:1e:9d:21:77:7f:72:31:
         06:d8:91:e8:13:77:62:bf:10:3c:7d:04:4f:28:6a:4d:d9:30:
         49:7f:b2:b4:2e:ae:6b:c8:cb:a8:4b:ca:2a:2c:bb:a1:c0:d5:
         88:78:f8:7a:7a:da:b7:aa:76:af:61:bc:1d:9c:84:f3:ce:3d:
         0c:a2:36:03:de:bd:e7:05:6e:6c:7b:a8:b1:72:32:c3:83:09:
         d4:ea:85:ca:6f:ff:15:3b:c8:78:62:03:d2:7f:1c:9a:25:c6:
         9b:c0:90:1b:07:d1:3b:41:de:d8:8a:f4:24:cc:10:32:44:e8:
         77:dd:35:a1:d5:60:e0:ec:d7:0b:8f:9b:6a:c8:b7:1a:03:f4:
         f2:eb:18:57:d1:bc:83:83:c7:9c:b6:b2:b5:7c:4d:82:82:0f:
         84:7b:53:a3:d3:ca:b2:94:21:2b:69:a8:9a:6a:cd:d8:60:b8:
         bf:d0:8a:ed:30:af:bc:c4:97:b7:cb:fc:5c:89:f7:06:3a:3d:
         82:b6:b3:b0:2c:e1:9d:14:05:31:2a:fd:a8:35:61:b0:2b:54:
         05:26:95:1d:b4:00:26:af:f6:32:f3:13:af:de:f2:47:15:4d:
         fb:ca:1f:d7:f2:5d:b7:8d
-----BEGIN CERTIFICATE-----
MIIFVTCCAz2gAwIBAgIQe7LKPo4HbbZR2yPr+mGSujANBgkqhkiG9w0BAQsFADAR
MQ8wDQYDVQQDDAZvdnBuY2EwHhcNMjIwNTE4MTQzNzQzWhcNMjQwODIwMTQzNzQz
WjAcMRowGAYDVQQDDBFoYXR0ZXJjbGllbnRfMTE5NDCCAiIwDQYJKoZIhvcNAQEB
BQADggIPADCCAgoCggIBALy32RJRH3LIkQtLF8LPMMwnBgrRsIAW/KaJR5/MBWii
JLJiq6edS2mew9jeQi4tXgydTYOonlmPybEZiZkWtECwvLo15qgKukXaFbEodKqd
LSM3Cg1gUB7tiho7Kv2/02+/4WQc4lFrP9EzNoGezgDP/c6WUJfvI8ZC5WcngfzS
uE8vK1zLNeC1AywhwVmJ2TSjNcxSa7t2roSPIzDuSoyGNwfiqVQ5VNCKC0PJXPTI
iwaJy3EVmjaE44SnYtsasugrHgnN8jD++74bkqevJK/Id4S7BWdVRq4GTtlnXzGR
KLS90TcAWtjJUG9uV2mDIg9OTxg5F2jfU2zg2NL+9IkRNuClJ4f4E1c7gZy3BOIK
Xb2iW3z0umrzJtqwwgLcdgsNqDRqblupL6mpkSo9DR2o6j5EVR6y4Xvy8GHtFF24
+p8G6DVn3KsV7jTHCG4Q4FGhM3ZdZMJACkoVEkoCZkXH0Xhv5XZheOzbdAuF1fCZ
FRHsEmeOFhWgH6ElUBbUdM71TMwIUIRZb5/BT1WdEWegv6ihJ7vFQsRghYdJeMl2
WhqnKSGIbCYAko/E6i+SjbfHy9rz38H0vfUbnx6G8n10WyAqtSKExXCRd+awEFzq
4NjOzx3JjZZTWkhlPRFyPCTYt4yp7LNiKbTEuv3sGjLU9twYshBZoR66HtlUKrhd
AgMBAAGjgZ0wgZowCQYDVR0TBAIwADAdBgNVHQ4EFgQU5/e4Dh6JQlWkAmZL9feJ
4VOOL7IwTAYDVR0jBEUwQ4AUshO7ttS8Enzvq/tr+WjFFpqNEXihFaQTMBExDzAN
BgNVBAMMBm92cG5jYYIUd8SG9MRu8kh6/3nU0+0QldIRZ9wwEwYDVR0lBAwwCgYI
KwYBBQUHAwIwCwYDVR0PBAQDAgeAMA0GCSqGSIb3DQEBCwUAA4ICAQAILIjRAc37
kRnUNg/NxjLJZAIa2CSdjjJh9TBV0mgZTcdfE/xs6U05l4C/62GCSAM1XxwnKJ49
7eVOypPh0w3qsEsng1Lbg2N84RFsR6zx6yo+bfaT/rYxkb7eJQfFfuIjilOVHLrt
FDn3qNZdhcNnlSIVuRQMAj8nju1PAOdgVfJeleOIoIvyQRc0L82CWdnNfwz9aXlE
ezG4E8D/qWVjEigkls/3balaE2R0OYLd/3dxnUtOtr39flQ9zSnabsQ8E2QPcx1A
Iwl1PCciE4NwKlj6cvK4CBqVeePaexPxCDAAN2Od+UJO9oiL16BYbMs2SijpIk/Y
FUd2DDeQ7O57YpxQMgsFMTv5lG/5dLvLLxG56oazLLIUTB6dIXd/cjEG2JHoE3di
vxA8fQRPKGpN2TBJf7K0Lq5ryMuoS8oqLLuhwNWIePh6etq3qnavYbwdnITzzj0M
ojYD3r3nBW5se6ixcjLDgwnU6oXKb/8VO8h4YgPSfxyaJcabwJAbB9E7Qd7YivQk
zBAyROh33TWh1WDg7NcLj5tqyLcaA/Ty6xhX0byDg8ectrK1fE2Cgg+Ee1Oj08qy
lCEraaiaas3YYLi/0IrtMK+8xJe3y/xcifcGOj2CtrOwLOGdFAUxKv2oNWGwK1QF
JpUdtAAmr/Yy8xOv3vJHFU37yh/X8l23jQ==
-----END CERTIFICATE-----
